Certificate:
    Data:
        Version: 3 (0x2)
        Serial Number: 3322 (0xcfa)
        Signature Algorithm: sha256WithRSAEncryption
        Issuer: C=US, ST=Washington, L=Seattle, O=getaCert - www.getacert.com
        Validity
            Not Before: Apr 19 19:52:49 2023 GMT
            Not After : Jun 18 19:52:49 2023 GMT
        Subject: C=IN, ST=Delhi, L=Delhi, O=Astrosevatalk, OU=Astrosevatalk, CN=api.astrosevatalk.com/emailAddress=satyam.thomso@gmail.com
        Subject Public Key Info:
            Public Key Algorithm: rsaEncryption
                RSA Public-Key: (2048 bit)
                Modulus:
                    00:b4:ed:26:49:03:47:46:c4:94:ee:a1:58:ba:dc:
                    37:10:eb:49:94:b8:36:8b:a1:66:ea:93:1f:0b:18:
                    dc:9e:bf:16:ea:9e:02:be:ac:d8:8e:f9:d6:bb:d0:
                    8b:2d:c6:8d:e7:5a:fe:ae:06:f6:32:41:a4:74:7a:
                    d8:2a:65:10:64:2f:69:f4:69:30:f9:f8:01:2c:92:
                    c6:6a:a1:3d:08:0c:19:e7:b9:2a:d1:40:e7:74:d3:
                    f8:e9:5a:f6:f8:b6:77:0a:7f:52:1c:81:bc:30:b8:
                    ff:f1:c5:48:79:a3:21:e4:7b:8a:e1:6c:2b:62:03:
                    40:72:d8:0c:ad:5c:f2:7a:a6:94:74:13:69:89:3c:
                    99:65:42:7b:f2:1f:73:8e:11:98:95:6d:65:0b:28:
                    ef:50:24:1b:36:34:9f:97:18:66:b6:49:f1:72:4f:
                    65:22:60:a0:fa:5b:a6:cd:45:c2:6f:4f:0e:91:60:
                    23:d5:43:cd:35:7b:09:16:eb:61:7a:0a:5c:23:df:
                    8e:cf:d9:1f:dc:b1:25:15:f9:01:c2:1e:47:59:55:
                    79:cb:2c:fc:74:52:bb:8b:56:04:fe:df:52:63:d5:
                    24:58:6c:c3:01:7e:7d:2a:41:ab:a1:c8:7d:79:46:
                    e2:24:64:6f:50:b8:28:9f:90:c7:e8:cb:13:ff:20:
                    9f:6f
                Exponent: 65537 (0x10001)
        X509v3 extensions:
            X509v3 Basic Constraints: 
                CA:FALSE
            Netscape Cert Type: 
                SSL Client, SSL Server, S/MIME, Object Signing
            X509v3 Key Usage: 
                Digital Signature, Key Encipherment
            X509v3 Extended Key Usage: 
                TLS Web Client Authentication, TLS Web Server Authentication
    Signature Algorithm: sha256WithRSAEncryption
         06:1b:a1:7d:92:44:c4:f6:cf:4b:01:17:50:67:b4:00:2f:04:
         7a:de:06:b4:01:f6:ec:d0:78:b9:e9:56:33:b9:eb:00:70:63:
         e1:62:b0:59:77:a1:f3:02:29:bf:44:b4:3d:c6:eb:df:ed:02:
         04:f6:e2:9a:5e:18:5a:80:b0:85:d7:12:66:50:b1:7b:89:e2:
         7d:74:4e:ef:39:5a:5a:85:48:a6:2e:7f:7e:bc:06:37:85:16:
         c0:fa:80:be:ca:c9:98:69:54:b9:b8:36:f3:0d:43:90:1d:eb:
         c6:f6:93:28:29:c7:9c:69:74:5b:c4:76:2f:e2:da:d2:68:0e:
         af:60:cf:6e:c3:9b:35:3f:58:80:80:ec:77:ea:71:e1:a4:64:
         2b:5f:5f:8e:3c:ad:66:7b:5c:fd:21:61:03:32:e2:7b:f2:f3:
         8a:4e:52:95:6a:9f:28:82:07:80:31:fb:bc:dc:41:06:d2:dc:
         27:09:58:ca:bf:ac:80:fa:d5:23:ce:9c:f9:ad:d8:f5:02:56:
         d5:64:f5:d3:39:98:05:9d:ce:20:94:c0:63:01:f1:5e:d2:61:
         90:8b:14:87:bd:51:92:55:2a:e0:9d:7d:e0:8d:03:43:68:24:
         b0:d9:56:38:7e:f5:2e:49:c9:cd:3d:3a:91:12:8d:b3:82:fd:
         e4:9b:27:41
-----BEGIN CERTIFICATE-----
MIIDyDCCArCgAwIBAgICDPowDQYJKoZIhvcNAQELBQAwWjELMAkGA1UEBhMCVVMx
EzARBgNVBAgTCldhc2hpbmd0b24xEDAOBgNVBAcTB1NlYXR0bGUxJDAiBgNVBAoT
G2dldGFDZXJ0IC0gd3d3LmdldGFjZXJ0LmNvbTAeFw0yMzA0MTkxOTUyNDlaFw0y
MzA2MTgxOTUyNDlaMIGlMQswCQYDVQQGEwJJTjEOMAwGA1UECAwFRGVsaGkxDjAM
BgNVBAcMBURlbGhpMRYwFAYDVQQKDA1Bc3Ryb3NldmF0YWxrMRYwFAYDVQQLDA1B
c3Ryb3NldmF0YWxrMR4wHAYDVQQDDBVhcGkuYXN0cm9zZXZhdGFsay5jb20xJjAk
BgkqhkiG9w0BCQEWF3NhdHlhbS50aG9tc29AZ21haWwuY29tMIIBIjANBgkqhkiG
9w0BAQEFAAOCAQ8AMIIBCgKCAQEAtO0mSQNHRsSU7qFYutw3EOtJlLg2i6Fm6pMf
Cxjcnr8W6p4CvqzYjvnWu9CLLcaN51r+rgb2MkGkdHrYKmUQZC9p9Gkw+fgBLJLG
aqE9CAwZ57kq0UDndNP46Vr2+LZ3Cn9SHIG8MLj/8cVIeaMh5HuK4WwrYgNActgM
rVzyeqaUdBNpiTyZZUJ78h9zjhGYlW1lCyjvUCQbNjSflxhmtknxck9lImCg+lum
zUXCb08OkWAj1UPNNXsJFuthegpcI9+Oz9kf3LElFfkBwh5HWVV5yyz8dFK7i1YE
/t9SY9UkWGzDAX59KkGroch9eUbiJGRvULgon5DH6MsT/yCfbwIDAQABo0wwSjAJ
BgNVHRMEAjAAMBEGCWCGSAGG+EIBAQQEAwIE8DALBgNVHQ8EBAMCBaAwHQYDVR0l
BBYwFAYIKwYBBQUHAwIGCCsGAQUFBwMBMA0GCSqGSIb3DQEBCwUAA4IBAQAGG6F9
kkTE9s9LARdQZ7QALwR63ga0Afbs0Hi56VYzuesAcGPhYrBZd6HzAim/RLQ9xuvf
7QIE9uKaXhhagLCF1xJmULF7ieJ9dE7vOVpahUimLn9+vAY3hRbA+oC+ysmYaVS5
uDbzDUOQHevG9pMoKcecaXRbxHYv4trSaA6vYM9uw5s1P1iAgOx36nHhpGQrX1+O
PK1me1z9IWEDMuJ78vOKTlKVap8oggeAMfu83EEG0twnCVjKv6yA+tUjzpz5rdj1
AlbVZPXTOZgFnc4glMBjAfFe0mGQixSHvVGSVSrgnX3gjQNDaCSw2VY4fvUuScnN
PTqREo2zgv3kmydB
-----END CERTIFICATE-----
